; Function Attrs: mustprogress nounwind uwtable
define internal void @_ZNSt13__future_base7_ResultIN7rocksdb12_GLOBAL__N_116BackupEngineImpl18CopyOrCreateResultEED0Ev(ptr noundef nonnull align 8 dereferenceable(145) %this) unnamed_addr #0 align 2 personality ptr @__gxx_personality_v0 {
entry:
  store ptr getelementptr inbounds ({ [5 x ptr] }, ptr @_ZTVNSt13__future_base7_ResultIN7rocksdb12_GLOBAL__N_116BackupEngineImpl18CopyOrCreateResultEEE, i64 0, i32 0, i64 2), ptr %this, align 8
  %_M_initialized.i = getelementptr inbounds i8, ptr %this, i64 144
  %0 = load i8, ptr %_M_initialized.i, align 8
  %1 = and i8 %0, 1
  %tobool.not.i = icmp eq i8 %1, 0
  br i1 %tobool.not.i, label %_ZNSt13__future_base7_ResultIN7rocksdb12_GLOBAL__N_116BackupEngineImpl18CopyOrCreateResultEED2Ev.exit, label %if.then.i

if.then.i:                                        ; preds = %entry
  %state_.i.i.i.i = getelementptr inbounds i8, ptr %this, i64 128
  %2 = load ptr, ptr %state_.i.i.i.i, align 8
  %cmp.not.i.i.i.i.i = icmp eq ptr %2, null
  br i1 %cmp.not.i.i.i.i.i, label %_ZN7rocksdb12_GLOBAL__N_116BackupEngineImpl18CopyOrCreateResultD2Ev.exit.i, label %_ZNKSt14default_deleteIA_KcEclIS0_EENSt9enable_ifIXsr14is_convertibleIPA_T_PS1_EE5valueEvE4typeEPS5_.exit.i.i.i.i.i

_ZNKSt14default_deleteIA_KcEclIS0_EENSt9enable_ifIXsr14is_convertibleIPA_T_PS1_EE5valueEvE4typeEPS5_.exit.i.i.i.i.i: ; preds = %if.then.i
  tail call void @_ZdaPv(ptr noundef nonnull %2) #31
  br label %_ZN7rocksdb12_GLOBAL__N_116BackupEngineImpl18CopyOrCreateResultD2Ev.exit.i

_ZN7rocksdb12_GLOBAL__N_116BackupEngineImpl18CopyOrCreateResultD2Ev.exit.i: ; preds = %_ZNKSt14default_deleteIA_KcEclIS0_EENSt9enable_ifIXsr14is_convertibleIPA_T_PS1_EE5valueEvE4typeEPS5_.exit.i.i.i.i.i, %if.then.i
  store ptr null, ptr %state_.i.i.i.i, align 8
  %db_session_id.i.i = getelementptr inbounds i8, ptr %this, i64 88
  tail call void @_ZNSt7__cxx1112basic_stringIcSt11char_traitsIcESaIcEED1Ev(ptr noundef nonnull align 8 dereferenceable(32) %db_session_id.i.i) #33
  %db_id.i.i = getelementptr inbounds i8, ptr %this, i64 56
  tail call void @_ZNSt7__cxx1112basic_stringIcSt11char_traitsIcESaIcEED1Ev(ptr noundef nonnull align 8 dereferenceable(32) %db_id.i.i) #33
  %checksum_hex.i.i = getelementptr inbounds i8, ptr %this, i64 24
  tail call void @_ZNSt7__cxx1112basic_stringIcSt11char_traitsIcESaIcEED1Ev(ptr noundef nonnull align 8 dereferenceable(32) %checksum_hex.i.i) #33
  br label %_ZNSt13__future_base7_ResultIN7rocksdb12_GLOBAL__N_116BackupEngineImpl18CopyOrCreateResultEED2Ev.exit

_ZNSt13__future_base7_ResultIN7rocksdb12_GLOBAL__N_116BackupEngineImpl18CopyOrCreateResultEED2Ev.exit: ; preds = %entry, %_ZN7rocksdb12_GLOBAL__N_116BackupEngineImpl18CopyOrCreateResultD2Ev.exit.i
  tail call void @_ZNSt13__future_base12_Result_baseD2Ev(ptr noundef nonnull align 8 dereferenceable(16) %this) #33
  tail call void @_ZdlPv(ptr noundef nonnull %this) #31
  ret void
}